target datalayout = "e-m:e-p270:32:32-p271:32:32-p272:64:64-i64:64-i128:128-f80:128-n8:16:32:64-S128"
target triple = "x86_64-pc-linux-gnu"

; Function Attrs: nounwind uwtable
define i32 @fdt_get_path(ptr noundef %0, i32 noundef %1, ptr noundef %2, i32 noundef %3) #0 {
  %5 = alloca i32, align 4
  %6 = alloca ptr, align 8
  %7 = alloca i32, align 4
  %8 = alloca ptr, align 8
  %9 = alloca i32, align 4
  %10 = alloca i32, align 4
  %11 = alloca i32, align 4
  %12 = alloca i32, align 4
  %13 = alloca i32, align 4
  %14 = alloca i32, align 4
  %15 = alloca ptr, align 8
  %16 = alloca i32, align 4
  %17 = alloca i32, align 4
  store ptr %0, ptr %6, align 8, !tbaa !3
  store i32 %1, ptr %7, align 4, !tbaa !7
  store ptr %2, ptr %8, align 8, !tbaa !13
  store i32 %3, ptr %9, align 4, !tbaa !7
  call void @llvm.lifetime.start.p0(i64 4, ptr %10) #6
  store i32 0, ptr %10, align 4, !tbaa !7
  call void @llvm.lifetime.start.p0(i64 4, ptr %11) #6
  store i32 0, ptr %11, align 4, !tbaa !7
  call void @llvm.lifetime.start.p0(i64 4, ptr %12) #6
  call void @llvm.lifetime.start.p0(i64 4, ptr %13) #6
  call void @llvm.lifetime.start.p0(i64 4, ptr %14) #6
  call void @llvm.lifetime.start.p0(i64 8, ptr %15) #6
  call void @llvm.lifetime.start.p0(i64 4, ptr %16) #6
  %18 = load ptr, ptr %6, align 8, !tbaa !3
  %19 = call i32 @fdt_ro_probe_(ptr noundef %18)
  store i32 %19, ptr %16, align 4, !tbaa !7
  %20 = icmp slt i32 %19, 0
  br i1 %20, label %21, label %23

21:                                               ; preds = %4
  %22 = load i32, ptr %16, align 4, !tbaa !7
  store i32 %22, ptr %5, align 4
  store i32 1, ptr %17, align 4
  br label %24

23:                                               ; preds = %4
  store i32 0, ptr %17, align 4
  br label %24

24:                                               ; preds = %23, %21
  call void @llvm.lifetime.end.p0(i64 4, ptr %16) #6
  %25 = load i32, ptr %17, align 4
  switch i32 %25, label %139 [
    i32 0, label %26
  ]

26:                                               ; preds = %24
  %27 = load i32, ptr %9, align 4, !tbaa !7
  %28 = icmp slt i32 %27, 2
  br i1 %28, label %29, label %30

29:                                               ; preds = %26
  store i32 -3, ptr %5, align 4
  store i32 1, ptr %17, align 4
  br label %139

30:                                               ; preds = %26
  store i32 0, ptr %12, align 4, !tbaa !7
  store i32 0, ptr %13, align 4, !tbaa !7
  br label %31

31:                                               ; preds = %121, %30
  %32 = load i32, ptr %12, align 4, !tbaa !7
  %33 = icmp sge i32 %32, 0
  br i1 %33, label %34, label %38

34:                                               ; preds = %31
  %35 = load i32, ptr %12, align 4, !tbaa !7
  %36 = load i32, ptr %7, align 4, !tbaa !7
  %37 = icmp sle i32 %35, %36
  br label %38

38:                                               ; preds = %34, %31
  %39 = phi i1 [ false, %31 ], [ %37, %34 ]
  br i1 %39, label %40, label %125

40:                                               ; preds = %38
  br label %41

41:                                               ; preds = %58, %40
  %42 = load i32, ptr %10, align 4, !tbaa !7
  %43 = load i32, ptr %13, align 4, !tbaa !7
  %44 = icmp sgt i32 %42, %43
  br i1 %44, label %45, label %61

45:                                               ; preds = %41
  br label %46

46:                                               ; preds = %49, %45
  %47 = load i32, ptr %11, align 4, !tbaa !7
  %48 = add nsw i32 %47, -1
  store i32 %48, ptr %11, align 4, !tbaa !7
  br label %49

49:                                               ; preds = %46
  %50 = load ptr, ptr %8, align 8, !tbaa !13
  %51 = load i32, ptr %11, align 4, !tbaa !7
  %52 = sub nsw i32 %51, 1
  %53 = sext i32 %52 to i64
  %54 = getelementptr inbounds i8, ptr %50, i64 %53
  %55 = load i8, ptr %54, align 1, !tbaa !15
  %56 = sext i8 %55 to i32
  %57 = icmp ne i32 %56, 47
  br i1 %57, label %46, label %58, !llvm.loop !33

58:                                               ; preds = %49
  %59 = load i32, ptr %10, align 4, !tbaa !7
  %60 = add nsw i32 %59, -1
  store i32 %60, ptr %10, align 4, !tbaa !7
  br label %41, !llvm.loop !34

61:                                               ; preds = %41
  %62 = load i32, ptr %10, align 4, !tbaa !7
  %63 = load i32, ptr %13, align 4, !tbaa !7
  %64 = icmp sge i32 %62, %63
  br i1 %64, label %65, label %99

65:                                               ; preds = %61
  %66 = load ptr, ptr %6, align 8, !tbaa !3
  %67 = load i32, ptr %12, align 4, !tbaa !7
  %68 = call ptr @fdt_get_name(ptr noundef %66, i32 noundef %67, ptr noundef %14)
  store ptr %68, ptr %15, align 8, !tbaa !13
  %69 = load ptr, ptr %15, align 8, !tbaa !13
  %70 = icmp ne ptr %69, null
  br i1 %70, label %73, label %71

71:                                               ; preds = %65
  %72 = load i32, ptr %14, align 4, !tbaa !7
  store i32 %72, ptr %5, align 4
  store i32 1, ptr %17, align 4
  br label %139

73:                                               ; preds = %65
  %74 = load i32, ptr %11, align 4, !tbaa !7
  %75 = load i32, ptr %14, align 4, !tbaa !7
  %76 = add nsw i32 %74, %75
  %77 = add nsw i32 %76, 1
  %78 = load i32, ptr %9, align 4, !tbaa !7
  %79 = icmp sle i32 %77, %78
  br i1 %79, label %80, label %98

80:                                               ; preds = %73
  %81 = load ptr, ptr %8, align 8, !tbaa !13
  %82 = load i32, ptr %11, align 4, !tbaa !7
  %83 = sext i32 %82 to i64
  %84 = getelementptr inbounds i8, ptr %81, i64 %83
  %85 = load ptr, ptr %15, align 8, !tbaa !13
  %86 = load i32, ptr %14, align 4, !tbaa !7
  %87 = sext i32 %86 to i64
  call void @llvm.memcpy.p0.p0.i64(ptr align 1 %84, ptr align 1 %85, i64 %87, i1 false)
  %88 = load i32, ptr %14, align 4, !tbaa !7
  %89 = load i32, ptr %11, align 4, !tbaa !7
  %90 = add nsw i32 %89, %88
  store i32 %90, ptr %11, align 4, !tbaa !7
  %91 = load ptr, ptr %8, align 8, !tbaa !13
  %92 = load i32, ptr %11, align 4, !tbaa !7
  %93 = add nsw i32 %92, 1
  store i32 %93, ptr %11, align 4, !tbaa !7
  %94 = sext i32 %92 to i64
  %95 = getelementptr inbounds i8, ptr %91, i64 %94
  store i8 47, ptr %95, align 1, !tbaa !15
  %96 = load i32, ptr %10, align 4, !tbaa !7
  %97 = add nsw i32 %96, 1
  store i32 %97, ptr %10, align 4, !tbaa !7
  br label %98

98:                                               ; preds = %80, %73
  br label %99

99:                                               ; preds = %98, %61
  %100 = load i32, ptr %12, align 4, !tbaa !7
  %101 = load i32, ptr %7, align 4, !tbaa !7
  %102 = icmp eq i32 %100, %101
  br i1 %102, label %103, label %120

103:                                              ; preds = %99
  %104 = load i32, ptr %10, align 4, !tbaa !7
  %105 = load i32, ptr %13, align 4, !tbaa !7
  %106 = add nsw i32 %105, 1
  %107 = icmp slt i32 %104, %106
  br i1 %107, label %108, label %109

108:                                              ; preds = %103
  store i32 -3, ptr %5, align 4
  store i32 1, ptr %17, align 4
  br label %139

109:                                              ; preds = %103
  %110 = load i32, ptr %11, align 4, !tbaa !7
  %111 = icmp sgt i32 %110, 1
  br i1 %111, label %112, label %115

112:                                              ; preds = %109
  %113 = load i32, ptr %11, align 4, !tbaa !7
  %114 = add nsw i32 %113, -1
  store i32 %114, ptr %11, align 4, !tbaa !7
  br label %115

115:                                              ; preds = %112, %109
  %116 = load ptr, ptr %8, align 8, !tbaa !13
  %117 = load i32, ptr %11, align 4, !tbaa !7
  %118 = sext i32 %117 to i64
  %119 = getelementptr inbounds i8, ptr %116, i64 %118
  store i8 0, ptr %119, align 1, !tbaa !15
  store i32 0, ptr %5, align 4
  store i32 1, ptr %17, align 4
  br label %139

120:                                              ; preds = %99
  br label %121

121:                                              ; preds = %120
  %122 = load ptr, ptr %6, align 8, !tbaa !3
  %123 = load i32, ptr %12, align 4, !tbaa !7
  %124 = call i32 @fdt_next_node(ptr noundef %122, i32 noundef %123, ptr noundef %13)
  store i32 %124, ptr %12, align 4, !tbaa !7
  br label %31, !llvm.loop !35

125:                                              ; preds = %38
  %126 = load i32, ptr %12, align 4, !tbaa !7
  %127 = icmp eq i32 %126, -1
  br i1 %127, label %131, label %128

128:                                              ; preds = %125
  %129 = load i32, ptr %12, align 4, !tbaa !7
  %130 = icmp sge i32 %129, 0
  br i1 %130, label %131, label %132

131:                                              ; preds = %128, %125
  store i32 -4, ptr %5, align 4
  store i32 1, ptr %17, align 4
  br label %139

132:                                              ; preds = %128
  %133 = load i32, ptr %12, align 4, !tbaa !7
  %134 = icmp eq i32 %133, -4
  br i1 %134, label %135, label %136

135:                                              ; preds = %132
  store i32 -11, ptr %5, align 4
  store i32 1, ptr %17, align 4
  br label %139

136:                                              ; preds = %132
  br label %137

137:                                              ; preds = %136
  %138 = load i32, ptr %12, align 4, !tbaa !7
  store i32 %138, ptr %5, align 4
  store i32 1, ptr %17, align 4
  br label %139

139:                                              ; preds = %137, %135, %131, %115, %108, %71, %29, %24
  call void @llvm.lifetime.end.p0(i64 8, ptr %15) #6
  call void @llvm.lifetime.end.p0(i64 4, ptr %14) #6
  call void @llvm.lifetime.end.p0(i64 4, ptr %13) #6
  call void @llvm.lifetime.end.p0(i64 4, ptr %12) #6
  call void @llvm.lifetime.end.p0(i64 4, ptr %11) #6
  call void @llvm.lifetime.end.p0(i64 4, ptr %10) #6
  %140 = load i32, ptr %5, align 4
  ret i32 %140
}