; Function Attrs: nounwind uwtable
define i32 @fdt_get_path(ptr noundef %0, i32 noundef %1, ptr noundef captures(none) %2, i32 noundef %3) local_unnamed_addr #0 {
  %5 = alloca i32, align 4
  %6 = alloca i32, align 4
  call void @llvm.lifetime.start.p0(i64 4, ptr nonnull %5) #9
  call void @llvm.lifetime.start.p0(i64 4, ptr nonnull %6) #9
  %7 = tail call i32 @fdt_ro_probe_(ptr noundef %0) #9
  %8 = icmp sgt i32 %7, -1
  br i1 %8, label %9, label %._crit_edge64.thread

9:                                                ; preds = %4
  %10 = icmp slt i32 %3, 2
  br i1 %10, label %._crit_edge64.thread, label %11

11:                                               ; preds = %9
  store i32 0, ptr %5, align 4, !tbaa !6
  %12 = icmp sgt i32 %1, -1
  br i1 %12, label %.preheader53.lr.ph, label %._crit_edge64.thread

.preheader53.lr.ph:                               ; preds = %11
  %invariant.gep = getelementptr i8, ptr %2, i64 -2
  br label %.preheader53

.preheader53:                                     ; preds = %.preheader53.lr.ph, %45
  %.04063 = phi i32 [ 0, %.preheader53.lr.ph ], [ %.2, %45 ]
  %.04262 = phi i32 [ 0, %.preheader53.lr.ph ], [ %46, %45 ]
  %.04361 = phi i32 [ 0, %.preheader53.lr.ph ], [ %.3, %45 ]
  %13 = load i32, ptr %5, align 4, !tbaa !6
  %14 = icmp sgt i32 %.04063, %13
  br i1 %14, label %.preheader.preheader, label %._crit_edge

.preheader.preheader:                             ; preds = %.preheader53
  %15 = add nsw i32 %.04063, -1
  br label %.preheader

.preheader:                                       ; preds = %.preheader.preheader, %19
  %.14158 = phi i32 [ %21, %19 ], [ %.04063, %.preheader.preheader ]
  %.14457 = phi i32 [ %20, %19 ], [ %.04361, %.preheader.preheader ]
  %16 = sext i32 %.14457 to i64
  br label %17

17:                                               ; preds = %.preheader, %17
  %indvars.iv = phi i64 [ %16, %.preheader ], [ %indvars.iv.next, %17 ]
  %indvars.iv.next = add nsw i64 %indvars.iv, -1
  %gep = getelementptr i8, ptr %invariant.gep, i64 %indvars.iv
  %18 = load i8, ptr %gep, align 1, !tbaa !3
  %.not52 = icmp eq i8 %18, 47
  br i1 %.not52, label %19, label %17, !llvm.loop !20

19:                                               ; preds = %17
  %20 = trunc nsw i64 %indvars.iv.next to i32
  %21 = add nsw i32 %.14158, -1
  %22 = icmp sgt i32 %21, %13
  br i1 %22, label %.preheader, label %._crit_edge.loopexit, !llvm.loop !21

._crit_edge.loopexit:                             ; preds = %19
  %smin = call i32 @llvm.smin.i32(i32 %13, i32 %15)
  br label %._crit_edge

._crit_edge:                                      ; preds = %._crit_edge.loopexit, %.preheader53
  %.144.lcssa = phi i32 [ %.04361, %.preheader53 ], [ %20, %._crit_edge.loopexit ]
  %.141.lcssa = phi i32 [ %.04063, %.preheader53 ], [ %smin, %._crit_edge.loopexit ]
  %.not = icmp slt i32 %.141.lcssa, %13
  br i1 %.not, label %36, label %23

23:                                               ; preds = %._crit_edge
  %24 = call ptr @fdt_get_name(ptr noundef %0, i32 noundef %.04262, ptr noundef nonnull %6)
  %.not49 = icmp eq ptr %24, null
  %25 = load i32, ptr %6, align 4, !tbaa !6
  br i1 %.not49, label %._crit_edge64.thread, label %26

26:                                               ; preds = %23
  %27 = add nsw i32 %25, %.144.lcssa
  %.not50.not = icmp slt i32 %27, %3
  br i1 %.not50.not, label %28, label %36

28:                                               ; preds = %26
  %29 = sext i32 %.144.lcssa to i64
  %30 = getelementptr inbounds i8, ptr %2, i64 %29
  %31 = sext i32 %25 to i64
  call void @llvm.memcpy.p0.p0.i64(ptr align 1 %30, ptr nonnull align 1 %24, i64 %31, i1 false)
  %32 = add nsw i32 %27, 1
  %33 = sext i32 %27 to i64
  %34 = getelementptr inbounds i8, ptr %2, i64 %33
  store i8 47, ptr %34, align 1, !tbaa !3
  %35 = add nsw i32 %.141.lcssa, 1
  br label %36

36:                                               ; preds = %26, %28, %._crit_edge
  %.3 = phi i32 [ %32, %28 ], [ %.144.lcssa, %26 ], [ %.144.lcssa, %._crit_edge ]
  %.2 = phi i32 [ %35, %28 ], [ %.141.lcssa, %26 ], [ %.141.lcssa, %._crit_edge ]
  %37 = icmp eq i32 %.04262, %1
  br i1 %37, label %38, label %45

38:                                               ; preds = %36
  %39 = load i32, ptr %5, align 4, !tbaa !6
  %.not51 = icmp sgt i32 %.2, %39
  br i1 %.not51, label %40, label %._crit_edge64.thread

40:                                               ; preds = %38
  %41 = icmp sgt i32 %.3, 1
  %42 = sext i1 %41 to i32
  %spec.select = add nsw i32 %.3, %42
  %43 = sext i32 %spec.select to i64
  %44 = getelementptr inbounds i8, ptr %2, i64 %43
  store i8 0, ptr %44, align 1, !tbaa !3
  br label %._crit_edge64.thread

45:                                               ; preds = %36
  %46 = call i32 @fdt_next_node(ptr noundef %0, i32 noundef %.04262, ptr noundef nonnull %5) #9
  %.not66 = icmp ugt i32 %46, %1
  br i1 %.not66, label %._crit_edge64, label %.preheader53, !llvm.loop !22

._crit_edge64:                                    ; preds = %45
  %or.cond = icmp sgt i32 %46, -2
  br i1 %or.cond, label %._crit_edge64.thread, label %47

47:                                               ; preds = %._crit_edge64
  %48 = icmp eq i32 %46, -4
  %..042 = select i1 %48, i32 -11, i32 %46
  br label %._crit_edge64.thread

._crit_edge64.thread:                             ; preds = %23, %11, %47, %._crit_edge64, %38, %9, %4, %40
  %.1 = phi i32 [ 0, %40 ], [ %7, %4 ], [ -3, %9 ], [ -3, %38 ], [ -4, %._crit_edge64 ], [ %..042, %47 ], [ -4, %11 ], [ %25, %23 ]
  call void @llvm.lifetime.end.p0(i64 4, ptr nonnull %6) #9
  call void @llvm.lifetime.end.p0(i64 4, ptr nonnull %5) #9
  ret i32 %.1
}